(dp0
Vengine
p1
S'pdflatex'
p2
sVpackages
p3
c__builtin__
set
p4
((lp5
Vgeometry
p6
aVcaption
p7
aVachicago
p8
atp9
Rp10
sVfiles_with_guttermarks
p11
g4
((lp12
V/Volumes/Data/Box Sync/Composition/Current Projects/Dissertation Paper/thesis/chapter1.tex
p13
aS'thesis.tex'
p14
atp15
Rp16
sVsynctex
p17
I01
s.